; Function Attrs: mustprogress uwtable
define hidden noundef zeroext i1 @_ZN3smt15fingerprint_set8containsEPvjjPKPNS_5enodeE(ptr noundef nonnull align 8 dereferenceable(112) %this, ptr noundef %data, i32 noundef %data_hash, i32 noundef %num_args, ptr nocapture noundef readonly %args) local_unnamed_addr #3 align 2 {
entry:
  %d = alloca ptr, align 8
  %m_tmp.i = getelementptr inbounds i8, ptr %this, i64 64
  %0 = load ptr, ptr %m_tmp.i, align 8
  %tobool.not.i.i = icmp eq ptr %0, null
  br i1 %tobool.not.i.i, label %_ZN6vectorIPN3smt5enodeELb0EjE5resetEv.exit.i, label %if.then.i.i

if.then.i.i:                                      ; preds = %entry
  %arrayidx.i.i = getelementptr inbounds i8, ptr %0, i64 -4
  store i32 0, ptr %arrayidx.i.i, align 4
  br label %_ZN6vectorIPN3smt5enodeELb0EjE5resetEv.exit.i

_ZN6vectorIPN3smt5enodeELb0EjE5resetEv.exit.i:    ; preds = %if.then.i.i, %entry
  %cmp3.not.i.i = icmp eq i32 %num_args, 0
  br i1 %cmp3.not.i.i, label %_ZN3smt15fingerprint_set8mk_dummyEPvjjPKPNS_5enodeE.exit, label %for.body.preheader.i.i

for.body.preheader.i.i:                           ; preds = %_ZN6vectorIPN3smt5enodeELb0EjE5resetEv.exit.i
  %wide.trip.count.i.i = zext i32 %num_args to i64
  br label %for.body.i.i

for.body.i.i:                                     ; preds = %_ZN6vectorIPN3smt5enodeELb0EjE9push_backERKS2_.exit.i.i, %for.body.preheader.i.i
  %indvars.iv.i.i = phi i64 [ 0, %for.body.preheader.i.i ], [ %indvars.iv.next.i.i, %_ZN6vectorIPN3smt5enodeELb0EjE9push_backERKS2_.exit.i.i ]
  %arrayidx.i2.i = getelementptr inbounds ptr, ptr %args, i64 %indvars.iv.i.i
  %1 = load ptr, ptr %m_tmp.i, align 8
  %cmp.i.i.i = icmp eq ptr %1, null
  br i1 %cmp.i.i.i, label %if.then.i.i.i, label %lor.lhs.false.i.i.i

lor.lhs.false.i.i.i:                              ; preds = %for.body.i.i
  %arrayidx.i.i.i = getelementptr inbounds i8, ptr %1, i64 -4
  %2 = load i32, ptr %arrayidx.i.i.i, align 4
  %arrayidx4.i.i.i = getelementptr inbounds i8, ptr %1, i64 -8
  %3 = load i32, ptr %arrayidx4.i.i.i, align 4
  %cmp5.i.i.i = icmp eq i32 %2, %3
  br i1 %cmp5.i.i.i, label %if.then.i.i.i, label %_ZN6vectorIPN3smt5enodeELb0EjE9push_backERKS2_.exit.i.i

if.then.i.i.i:                                    ; preds = %lor.lhs.false.i.i.i, %for.body.i.i
  tail call void @_ZN6vectorIPN3smt5enodeELb0EjE13expand_vectorEv(ptr noundef nonnull align 8 dereferenceable(8) %m_tmp.i)
  %.pre.i.i.i = load ptr, ptr %m_tmp.i, align 8
  %arrayidx8.phi.trans.insert.i.i.i = getelementptr inbounds i8, ptr %.pre.i.i.i, i64 -4
  %.pre1.i.i.i = load i32, ptr %arrayidx8.phi.trans.insert.i.i.i, align 4
  br label %_ZN6vectorIPN3smt5enodeELb0EjE9push_backERKS2_.exit.i.i

_ZN6vectorIPN3smt5enodeELb0EjE9push_backERKS2_.exit.i.i: ; preds = %if.then.i.i.i, %lor.lhs.false.i.i.i
  %4 = phi i32 [ %.pre1.i.i.i, %if.then.i.i.i ], [ %2, %lor.lhs.false.i.i.i ]
  %5 = phi ptr [ %.pre.i.i.i, %if.then.i.i.i ], [ %1, %lor.lhs.false.i.i.i ]
  %idx.ext.i.i.i = zext i32 %4 to i64
  %add.ptr.i.i.i = getelementptr inbounds ptr, ptr %5, i64 %idx.ext.i.i.i
  %6 = load ptr, ptr %arrayidx.i2.i, align 8
  store ptr %6, ptr %add.ptr.i.i.i, align 8
  %7 = load ptr, ptr %m_tmp.i, align 8
  %arrayidx10.i.i.i = getelementptr inbounds i8, ptr %7, i64 -4
  %8 = load i32, ptr %arrayidx10.i.i.i, align 4
  %inc.i.i.i = add i32 %8, 1
  store i32 %inc.i.i.i, ptr %arrayidx10.i.i.i, align 4
  %indvars.iv.next.i.i = add nuw nsw i64 %indvars.iv.i.i, 1
  %exitcond.not.i.i = icmp eq i64 %indvars.iv.next.i.i, %wide.trip.count.i.i
  br i1 %exitcond.not.i.i, label %_ZN3smt15fingerprint_set8mk_dummyEPvjjPKPNS_5enodeE.exit, label %for.body.i.i, !llvm.loop !6

_ZN3smt15fingerprint_set8mk_dummyEPvjjPKPNS_5enodeE.exit: ; preds = %_ZN6vectorIPN3smt5enodeELb0EjE9push_backERKS2_.exit.i.i, %_ZN6vectorIPN3smt5enodeELb0EjE5resetEv.exit.i
  %m_dummy.i = getelementptr inbounds i8, ptr %this, i64 72
  store ptr %data, ptr %m_dummy.i, align 8
  %m_data_hash.i = getelementptr inbounds i8, ptr %this, i64 80
  store i32 %data_hash, ptr %m_data_hash.i, align 8
  %m_num_args.i = getelementptr inbounds i8, ptr %this, i64 96
  store i32 %num_args, ptr %m_num_args.i, align 8
  %9 = load ptr, ptr %m_tmp.i, align 8
  %m_args.i = getelementptr inbounds i8, ptr %this, i64 104
  store ptr %9, ptr %m_args.i, align 8
  store ptr %m_dummy.i, ptr %d, align 8
  %m_set = getelementptr inbounds i8, ptr %this, i64 8
  %call.i = call noundef ptr @_ZNK14core_hashtableI14ptr_hash_entryIN3smt11fingerprintEENS1_15fingerprint_set21fingerprint_hash_procENS4_19fingerprint_eq_procEE9find_coreERKPS2_(ptr noundef nonnull align 8 dereferenceable(20) %m_set, ptr noundef nonnull align 8 dereferenceable(8) %d)
  %cmp.i.not = icmp eq ptr %call.i, null
  br i1 %cmp.i.not, label %for.cond.preheader, label %return

for.cond.preheader:                               ; preds = %_ZN3smt15fingerprint_set8mk_dummyEPvjjPKPNS_5enodeE.exit
  br i1 %cmp3.not.i.i, label %for.end, label %for.body.preheader

for.body.preheader:                               ; preds = %for.cond.preheader
  %wide.trip.count = zext i32 %num_args to i64
  br label %for.body

for.body:                                         ; preds = %for.body.preheader, %for.body
  %indvars.iv = phi i64 [ 0, %for.body.preheader ], [ %indvars.iv.next, %for.body ]
  %10 = load ptr, ptr %d, align 8
  %m_args = getelementptr inbounds i8, ptr %10, i64 32
  %11 = load ptr, ptr %m_args, align 8
  %arrayidx = getelementptr inbounds ptr, ptr %11, i64 %indvars.iv
  %12 = load ptr, ptr %arrayidx, align 8
  %m_root.i = getelementptr inbounds i8, ptr %12, i64 8
  %13 = load ptr, ptr %m_root.i, align 8
  store ptr %13, ptr %arrayidx, align 8
  %indvars.iv.next = add nuw nsw i64 %indvars.iv, 1
  %exitcond.not = icmp eq i64 %indvars.iv.next, %wide.trip.count
  br i1 %exitcond.not, label %for.end, label %for.body, !llvm.loop !8

for.end:                                          ; preds = %for.body, %for.cond.preheader
  %call.i5 = call noundef ptr @_ZNK14core_hashtableI14ptr_hash_entryIN3smt11fingerprintEENS1_15fingerprint_set21fingerprint_hash_procENS4_19fingerprint_eq_procEE9find_coreERKPS2_(ptr noundef nonnull align 8 dereferenceable(20) %m_set, ptr noundef nonnull align 8 dereferenceable(8) %d)
  %cmp.i6 = icmp ne ptr %call.i5, null
  br label %return

return:                                           ; preds = %for.end, %_ZN3smt15fingerprint_set8mk_dummyEPvjjPKPNS_5enodeE.exit
  %retval.0 = phi i1 [ true, %_ZN3smt15fingerprint_set8mk_dummyEPvjjPKPNS_5enodeE.exit ], [ %cmp.i6, %for.end ]
  ret i1 %retval.0
}